Certificate:
    Data:
        Version: 3 (0x2)
        Serial Number:
            be:f2:be:63:a5:65:2e:5e:e2:60:d0:4a:4b:06:da:de
    Signature Algorithm: sha256WithRSAEncryption
        Issuer: CN=Easy-RSA CA
        Validity
            Not Before: Jun  2 23:24:15 2021 GMT
            Not After : Sep  5 23:24:15 2023 GMT
        Subject: CN=client1.domain.tld
        Subject Public Key Info:
            Public Key Algorithm: rsaEncryption
                Public-Key: (2048 bit)
                Modulus:
                    00:c9:dc:3d:8b:d2:dd:2a:86:a1:0d:88:28:bd:73:
                    fe:58:00:2a:93:b1:07:21:0e:bd:43:0a:05:c1:d7:
                    63:bf:84:86:aa:d4:e2:7e:e7:a8:1f:31:63:ae:27:
                    71:74:9d:41:d5:8e:48:27:a0:26:1c:59:b2:56:74:
                    0c:a4:75:e7:c0:30:8e:4e:f4:8a:ce:dd:04:a9:98:
                    4d:cd:a5:00:57:f5:ef:76:60:9e:77:88:22:34:ba:
                    1d:69:95:dc:a7:6d:f5:a8:e0:4b:6a:f8:bc:d4:51:
                    a5:35:f0:ba:6e:10:57:dd:8c:68:93:09:39:fc:bd:
                    01:13:fa:c5:a4:4d:a7:c4:bc:61:4a:5b:b9:56:0c:
                    73:52:e4:e1:80:5d:7a:55:82:2a:b5:8d:b1:53:90:
                    6f:86:52:28:6a:68:db:91:be:9a:45:27:f6:10:23:
                    99:dc:48:f4:07:73:dc:1d:19:89:ec:42:a3:04:f5:
                    0d:5a:68:4c:86:be:70:85:dd:c2:fe:d7:d4:81:93:
                    4e:ed:e4:f4:ec:33:f4:25:08:d2:25:d6:ff:c0:f5:
                    14:0b:a8:4c:f7:d1:8c:69:da:0d:63:16:89:45:70:
                    7f:57:ab:61:f7:7e:41:3b:56:76:e8:ca:52:c6:f7:
                    ac:26:5b:05:10:0e:97:85:2b:cc:d1:e1:5e:69:f7:
                    81:3d
                Exponent: 65537 (0x10001)
        X509v3 extensions:
            X509v3 Basic Constraints: 
                CA:FALSE
            X509v3 Subject Key Identifier: 
                59:F7:9A:F5:C1:9D:B0:5D:23:2B:2F:6C:F1:B8:40:C3:FF:3F:B7:DE
            X509v3 Authority Key Identifier: 
                keyid:D3:83:EF:32:B9:52:87:F0:83:CE:99:61:96:D5:86:70:12:23:30:C1
                DirName:/CN=Easy-RSA CA
                serial:D3:F3:F9:FF:49:10:79:86

            X509v3 Extended Key Usage: 
                TLS Web Client Authentication
            X509v3 Key Usage: 
                Digital Signature
    Signature Algorithm: sha256WithRSAEncryption
         59:a9:1e:81:a7:df:16:cd:57:b9:46:05:9e:f4:f7:bb:13:97:
         4d:8a:df:77:d5:c3:03:71:69:a6:72:fd:7c:09:9f:88:84:01:
         fd:09:ed:29:04:39:d6:b0:61:0d:17:7d:c8:34:df:29:a9:a9:
         32:21:01:2a:a4:f6:6a:af:96:22:85:8b:2e:f7:e6:47:7d:9e:
         28:eb:4e:c3:84:9a:13:ed:19:c9:66:bc:50:cc:93:cc:1d:fe:
         21:5e:3e:22:6b:2e:30:22:9b:42:1b:e7:e1:70:dc:45:20:40:
         0f:27:f4:f6:d8:db:5a:2b:69:1b:89:6f:78:22:c2:64:c8:ce:
         1a:2f:4c:c4:b7:0c:a0:f0:74:64:78:80:75:95:05:cd:f8:d9:
         9d:1d:c8:d7:f9:cc:9b:0a:3b:66:97:6a:14:25:12:d8:10:ad:
         8f:f8:35:b0:19:cd:c7:06:98:7c:7b:23:5b:27:29:e2:21:1b:
         22:8d:7c:02:88:c8:f7:39:64:5f:7b:13:c5:26:9f:9d:4c:84:
         e9:41:22:4e:57:32:62:66:23:11:65:e2:60:e0:4c:fd:1b:79:
         66:94:fc:73:42:b7:24:86:64:16:3a:f3:82:57:82:2e:36:e4:
         60:51:47:86:4c:1c:ba:39:11:1b:94:13:3e:7c:d4:46:aa:c4:
         0c:39:d6:a9
-----BEGIN CERTIFICATE-----
MIIDVjCCAj6gAwIBAgIRAL7yvmOlZS5e4mDQSksG2t4wDQYJKoZIhvcNAQELBQAw
FjEUMBIGA1UEAwwLRWFzeS1SU0EgQ0EwHhcNMjEwNjAyMjMyNDE1WhcNMjMwOTA1
MjMyNDE1WjAdMRswGQYDVQQDDBJjbGllbnQxLmRvbWFpbi50bGQwggEiMA0GCSqG
SIb3DQEBAQUAA4IBDwAwggEKAoIBAQDJ3D2L0t0qhqENiCi9c/5YACqTsQchDr1D
CgXB12O/hIaq1OJ+56gfMWOuJ3F0nUHVjkgnoCYcWbJWdAykdefAMI5O9IrO3QSp
mE3NpQBX9e92YJ53iCI0uh1pldynbfWo4Etq+LzUUaU18LpuEFfdjGiTCTn8vQET
+sWkTafEvGFKW7lWDHNS5OGAXXpVgiq1jbFTkG+GUihqaNuRvppFJ/YQI5ncSPQH
c9wdGYnsQqME9Q1aaEyGvnCF3cL+19SBk07t5PTsM/QlCNIl1v/A9RQLqEz30Yxp
2g1jFolFcH9Xq2H3fkE7VnboylLG96wmWwUQDpeFK8zR4V5p94E9AgMBAAGjgZcw
gZQwCQYDVR0TBAIwADAdBgNVHQ4EFgQUWfea9cGdsF0jKy9s8bhAw/8/t94wRgYD
VR0jBD8wPYAU04PvMrlSh/CDzplhltWGcBIjMMGhGqQYMBYxFDASBgNVBAMMC0Vh
c3ktUlNBIENBggkA0/P5/0kQeYYwEwYDVR0lBAwwCgYIKwYBBQUHAwIwCwYDVR0P
BAQDAgeAMA0GCSqGSIb3DQEBCwUAA4IBAQBZqR6Bp98WzVe5RgWe9Pe7E5dNit93
1cMDcWmmcv18CZ+IhAH9Ce0pBDnWsGENF33INN8pqakyIQEqpPZqr5YihYsu9+ZH
fZ4o607DhJoT7RnJZrxQzJPMHf4hXj4iay4wIptCG+fhcNxFIEAPJ/T22NtaK2kb
iW94IsJkyM4aL0zEtwyg8HRkeIB1lQXN+NmdHcjX+cybCjtml2oUJRLYEK2P+DWw
Gc3HBph8eyNbJyniIRsijXwCiMj3OWRfexPFJp+dTITpQSJOVzJiZiMRZeJg4Ez9
G3lmlPxzQrckhmQWOvOCV4IuNuRgUUeGTBy6OREblBM+fNRGqsQMOdap
-----END CERTIFICATE-----
